target datalayout = "e-m:e-p270:32:32-p271:32:32-p272:64:64-i64:64-i128:128-f80:128-n8:16:32:64-S128"
target triple = "x86_64-pc-linux-gnu"

%struct.__va_list_tag = type { i32, i32, ptr, ptr }

@.str = private unnamed_addr constant [1 x i8] zeroinitializer, align 1

; Function Attrs: nounwind uwtable
define dso_local ptr @str_vprintf(ptr noundef %0, ptr noundef %1) #0 {
  %3 = alloca ptr, align 8
  %4 = alloca ptr, align 8
  %5 = alloca ptr, align 8
  %6 = alloca [1 x %struct.__va_list_tag], align 16
  %7 = alloca i32, align 4
  %8 = alloca ptr, align 8
  %9 = alloca i32, align 4
  store ptr %0, ptr %4, align 8
  store ptr %1, ptr %5, align 8
  %10 = getelementptr inbounds [1 x %struct.__va_list_tag], ptr %6, i64 0, i64 0
  %11 = load ptr, ptr %5, align 8
  call void @llvm.va_copy.p0(ptr %10, ptr %11)
  %12 = load ptr, ptr %4, align 8
  %13 = getelementptr inbounds [1 x %struct.__va_list_tag], ptr %6, i64 0, i64 0
  %14 = call i32 @vsnprintf(ptr noundef null, i64 noundef 0, ptr noundef %12, ptr noundef %13) #8
  store i32 %14, ptr %7, align 4
  %15 = getelementptr inbounds [1 x %struct.__va_list_tag], ptr %6, i64 0, i64 0
  call void @llvm.va_end.p0(ptr %15)
  %16 = load i32, ptr %7, align 4
  %17 = icmp slt i32 %16, 1
  br i1 %17, label %18, label %19

18:                                               ; preds = %2
  store ptr @.str, ptr %3, align 8
  br label %32

19:                                               ; preds = %2
  %20 = load i32, ptr %7, align 4
  %21 = add i32 %20, 1
  %22 = zext i32 %21 to i64
  %23 = call ptr @calloc_string(i64 noundef %22)
  store ptr %23, ptr %8, align 8
  %24 = load ptr, ptr %8, align 8
  %25 = load i32, ptr %7, align 4
  %26 = add nsw i32 %25, 1
  %27 = sext i32 %26 to i64
  %28 = load ptr, ptr %4, align 8
  %29 = load ptr, ptr %5, align 8
  %30 = call i32 @vsnprintf(ptr noundef %24, i64 noundef %27, ptr noundef %28, ptr noundef %29) #8
  store i32 %30, ptr %9, align 4
  %31 = load ptr, ptr %8, align 8
  store ptr %31, ptr %3, align 8
  br label %32

32:                                               ; preds = %19, %18
  %33 = load ptr, ptr %3, align 8
  ret ptr %33
}

; Function Attrs: nounwind uwtable
define dso_local ptr @str_printf(ptr noundef %0, ...) #0 {
  %2 = alloca ptr, align 8
  %3 = alloca [1 x %struct.__va_list_tag], align 16
  %4 = alloca ptr, align 8
  store ptr %0, ptr %2, align 8
  %5 = getelementptr inbounds [1 x %struct.__va_list_tag], ptr %3, i64 0, i64 0
  call void @llvm.va_start.p0(ptr %5)
  %6 = load ptr, ptr %2, align 8
  %7 = getelementptr inbounds [1 x %struct.__va_list_tag], ptr %3, i64 0, i64 0
  %8 = call ptr @str_vprintf(ptr noundef %6, ptr noundef %7)
  store ptr %8, ptr %4, align 8
  %9 = getelementptr inbounds [1 x %struct.__va_list_tag], ptr %3, i64 0, i64 0
  call void @llvm.va_end.p0(ptr %9)
  %10 = load ptr, ptr %4, align 8
  ret ptr %10
}