; Function Attrs: nounwind uwtable
define dso_local noundef ptr @str_printf(ptr nocapture noundef readonly %0, ...) local_unnamed_addr #7 {
  %2 = alloca [1 x %struct.__va_list_tag], align 16
  %3 = alloca [1 x %struct.__va_list_tag], align 16
  call void @llvm.va_start.p0(ptr nonnull %3)
  call void @llvm.lifetime.start.p0(i64 24, ptr nonnull %2)
  call void @llvm.va_copy.p0(ptr nonnull %2, ptr nonnull %3)
  %4 = call i32 @vsnprintf(ptr noundef null, i64 noundef 0, ptr noundef %0, ptr noundef nonnull %2) #21
  call void @llvm.va_end.p0(ptr nonnull %2)
  %5 = icmp slt i32 %4, 1
  br i1 %5, label %str_vprintf.exit, label %6

6:                                                ; preds = %1
  %7 = add nuw i32 %4, 1
  %8 = zext i32 %7 to i64
  %9 = call ptr @calloc_string(i64 noundef %8) #21
  %10 = sext i32 %7 to i64
  %11 = call i32 @vsnprintf(ptr noundef %9, i64 noundef %10, ptr noundef %0, ptr noundef nonnull %3) #21
  br label %str_vprintf.exit

str_vprintf.exit:                                 ; preds = %1, %6
  %.0.i = phi ptr [ %9, %6 ], [ @.str, %1 ]
  call void @llvm.lifetime.end.p0(i64 24, ptr nonnull %2)
  call void @llvm.va_end.p0(ptr nonnull %3)
  ret ptr %.0.i
}